; Function Attrs: nounwind uwtable
define hidden void @zim_XMLReader_moveToAttributeNs(ptr nocapture noundef readonly %0, ptr nocapture noundef writeonly %1) #0 {
  %3 = alloca i64, align 8
  %4 = alloca i64, align 8
  %5 = alloca ptr, align 8
  %6 = alloca ptr, align 8
  store i64 0, ptr %3, align 8
  store i64 0, ptr %4, align 8
  %7 = getelementptr inbounds i8, ptr %0, i64 32
  %8 = getelementptr inbounds i8, ptr %0, i64 44
  %9 = load i32, ptr %8, align 4
  %10 = call i32 (i32, ptr, ...) @zend_parse_parameters(i32 noundef %9, ptr noundef nonnull @.str.8, ptr noundef nonnull %5, ptr noundef nonnull %3, ptr noundef nonnull %6, ptr noundef nonnull %4) #11
  %11 = icmp eq i32 %10, -1
  br i1 %11, label %12, label %15

12:                                               ; preds = %2
  %13 = load ptr, ptr getelementptr inbounds (%struct._zend_executor_globals, ptr @executor_globals, i64 0, i32 50), align 8
  %14 = icmp ne ptr %13, null
  call void @llvm.assume(i1 %14)
  br label %40

15:                                               ; preds = %2
  %16 = load i64, ptr %3, align 8
  %17 = icmp eq i64 %16, 0
  br i1 %17, label %18, label %21

18:                                               ; preds = %15
  call void (i32, ptr, ...) @zend_argument_value_error(i32 noundef 1, ptr noundef nonnull @.str.9) #11
  %19 = load ptr, ptr getelementptr inbounds (%struct._zend_executor_globals, ptr @executor_globals, i64 0, i32 50), align 8
  %20 = icmp ne ptr %19, null
  call void @llvm.assume(i1 %20)
  br label %40

21:                                               ; preds = %15
  %22 = load i64, ptr %4, align 8
  %23 = icmp eq i64 %22, 0
  br i1 %23, label %24, label %27

24:                                               ; preds = %21
  call void (i32, ptr, ...) @zend_argument_value_error(i32 noundef 2, ptr noundef nonnull @.str.9) #11
  %25 = load ptr, ptr getelementptr inbounds (%struct._zend_executor_globals, ptr @executor_globals, i64 0, i32 50), align 8
  %26 = icmp ne ptr %25, null
  call void @llvm.assume(i1 %26)
  br label %40

27:                                               ; preds = %21
  %28 = load ptr, ptr %7, align 8
  %29 = getelementptr inbounds i8, ptr %28, i64 -32
  %30 = load ptr, ptr %29, align 8
  %.not = icmp eq ptr %30, null
  br i1 %.not, label %38, label %31

31:                                               ; preds = %27
  %32 = load ptr, ptr %5, align 8
  %33 = load ptr, ptr %6, align 8
  %34 = call i32 @xmlTextReaderMoveToAttributeNs(ptr noundef nonnull %30, ptr noundef %32, ptr noundef %33) #11
  %35 = icmp eq i32 %34, 1
  br i1 %35, label %36, label %38

36:                                               ; preds = %31
  %37 = getelementptr inbounds i8, ptr %1, i64 8
  store i32 3, ptr %37, align 8
  br label %40

38:                                               ; preds = %31, %27
  %39 = getelementptr inbounds i8, ptr %1, i64 8
  store i32 2, ptr %39, align 8
  br label %40

40:                                               ; preds = %38, %36, %24, %18, %12
  ret void
}